target datalayout = "e-m:e-p270:32:32-p271:32:32-p272:64:64-i64:64-i128:128-f80:128-n8:16:32:64-S128"
target triple = "x86_64-pc-linux-gnu"

%"struct.duckdb_zstd::ZSTD_customMem" = type { ptr, ptr, ptr }
%"struct.duckdb_zstd::ZSTD_frameParameters" = type { i32, i32, i32 }
%"struct.duckdb_zstd::ZSTD_compressionParameters" = type { i32, i32, i32, i32, i32, i32, i32 }
%"struct.duckdb_zstd::ZSTD_CCtx_s" = type { i32, i32, i32, %"struct.duckdb_zstd::ZSTD_CCtx_params_s", %"struct.duckdb_zstd::ZSTD_CCtx_params_s", %"struct.duckdb_zstd::ZSTD_CCtx_params_s", i32, i64, %"struct.duckdb_zstd::ZSTD_cwksp", i64, i64, i64, i64, %"struct.duckdb_zstd::XXH64_state_s", %"struct.duckdb_zstd::ZSTD_customMem", ptr, i64, %"struct.duckdb_zstd::SeqCollector", i32, i32, %"struct.duckdb_zstd::seqStore_t", %"struct.duckdb_zstd::ldmState_t", ptr, i64, %"struct.duckdb_zstd::rawSeqStore_t", %"struct.duckdb_zstd::ZSTD_blockState_t", ptr, i32, ptr, i64, i64, i64, i64, ptr, i64, i64, i64, i32, i32, %"struct.duckdb_zstd::ZSTD_inBuffer_s", i64, i64, %"struct.duckdb_zstd::ZSTD_localDict", ptr, %"struct.duckdb_zstd::ZSTD_prefixDict_s", i64, %"struct.duckdb_zstd::ZSTD_blockSplitCtx", ptr, i64 }
%"struct.duckdb_zstd::ZSTD_CCtx_params_s" = type { i32, %"struct.duckdb_zstd::ZSTD_compressionParameters", %"struct.duckdb_zstd::ZSTD_frameParameters", i32, i32, i64, i32, i32, i32, i32, i64, i32, i32, %"struct.duckdb_zstd::ldmParams_t", i32, i32, i32, i32, i32, i32, i32, i32, %"struct.duckdb_zstd::ZSTD_customMem", i32, i32, ptr, ptr, i64, i32 }
%"struct.duckdb_zstd::ldmParams_t" = type { i32, i32, i32, i32, i32, i32 }
%"struct.duckdb_zstd::ZSTD_cwksp" = type { ptr, ptr, ptr, ptr, ptr, ptr, ptr, i8, i32, i32, i32 }
%"struct.duckdb_zstd::XXH64_state_s" = type { i64, i64, i64, i64, i64, [4 x i64], i32, [2 x i32] }
%"struct.duckdb_zstd::SeqCollector" = type { i32, ptr, i64, i64 }
%"struct.duckdb_zstd::seqStore_t" = type { ptr, ptr, ptr, ptr, ptr, ptr, ptr, i64, i64, i32, i32 }
%"struct.duckdb_zstd::ldmState_t" = type { %"struct.duckdb_zstd::ZSTD_window_t", ptr, i32, ptr, [64 x i64], [64 x %"struct.duckdb_zstd::ldmMatchCandidate_t"] }
%"struct.duckdb_zstd::ZSTD_window_t" = type { ptr, ptr, ptr, i32, i32, i32 }
%"struct.duckdb_zstd::ldmMatchCandidate_t" = type { ptr, i32, i32, ptr }
%"struct.duckdb_zstd::rawSeqStore_t" = type { ptr, i64, i64, i64, i64 }
%"struct.duckdb_zstd::ZSTD_blockState_t" = type { ptr, ptr, %"struct.duckdb_zstd::ZSTD_matchState_t" }
%"struct.duckdb_zstd::ZSTD_matchState_t" = type { %"struct.duckdb_zstd::ZSTD_window_t", i32, i32, i32, i32, ptr, [8 x i32], i64, i32, ptr, ptr, ptr, i32, i32, %"struct.duckdb_zstd::optState_t", ptr, %"struct.duckdb_zstd::ZSTD_compressionParameters", ptr, i32, i32 }
%"struct.duckdb_zstd::optState_t" = type { ptr, ptr, ptr, ptr, ptr, ptr, i32, i32, i32, i32, i32, i32, i32, i32, i32, ptr, i32 }
%"struct.duckdb_zstd::ZSTD_inBuffer_s" = type { ptr, i64, i64 }
%"struct.duckdb_zstd::ZSTD_localDict" = type { ptr, ptr, i64, i32, ptr }
%"struct.duckdb_zstd::ZSTD_prefixDict_s" = type { ptr, i64, i32 }
%"struct.duckdb_zstd::ZSTD_blockSplitCtx" = type { %"struct.duckdb_zstd::seqStore_t", %"struct.duckdb_zstd::seqStore_t", %"struct.duckdb_zstd::seqStore_t", %"struct.duckdb_zstd::seqStore_t", %"struct.duckdb_zstd::seqStore_t", [196 x i32], %"struct.duckdb_zstd::ZSTD_entropyCTablesMetadata_t" }
%"struct.duckdb_zstd::ZSTD_entropyCTablesMetadata_t" = type { %"struct.duckdb_zstd::ZSTD_hufCTablesMetadata_t", %"struct.duckdb_zstd::ZSTD_fseCTablesMetadata_t" }
%"struct.duckdb_zstd::ZSTD_hufCTablesMetadata_t" = type { i32, [128 x i8], i64 }
%"struct.duckdb_zstd::ZSTD_fseCTablesMetadata_t" = type { i32, i32, i32, [133 x i8], i64, i64 }
%"struct.duckdb_zstd::ZSTD_cpuid_t" = type { i32, i32, i32, i32 }

; Function Attrs: mustprogress nounwind uwtable
define noundef i64 @_ZN11duckdb_zstd20ZSTD_CCtxParams_initEPNS_18ZSTD_CCtx_params_sEi(ptr noundef %0, i32 noundef %1) #0 {
  %3 = alloca i64, align 8
  %4 = alloca ptr, align 8
  %5 = alloca i32, align 4
  store ptr %0, ptr %4, align 8, !tbaa !96
  store i32 %1, ptr %5, align 4, !tbaa !79
  br label %6

6:                                                ; preds = %2
  %7 = load ptr, ptr %4, align 8, !tbaa !96
  %8 = icmp ne ptr %7, null
  br i1 %8, label %18, label %9

9:                                                ; preds = %6
  br label %10

10:                                               ; preds = %9
  br label %11

11:                                               ; preds = %10
  br label %12

12:                                               ; preds = %11
  br label %13

13:                                               ; preds = %12
  br label %14

14:                                               ; preds = %13
  br label %15

15:                                               ; preds = %14
  br label %16

16:                                               ; preds = %15
  br label %17

17:                                               ; preds = %16
  store i64 -1, ptr %3, align 8
  br label %27

18:                                               ; preds = %6
  br label %19

19:                                               ; preds = %18
  %20 = load ptr, ptr %4, align 8, !tbaa !96
  call void @llvm.memset.p0.i64(ptr align 8 %20, i8 0, i64 216, i1 false)
  %21 = load i32, ptr %5, align 4, !tbaa !79
  %22 = load ptr, ptr %4, align 8, !tbaa !96
  %23 = getelementptr inbounds nuw %"struct.duckdb_zstd::ZSTD_CCtx_params_s", ptr %22, i32 0, i32 3
  store i32 %21, ptr %23, align 4, !tbaa !98
  %24 = load ptr, ptr %4, align 8, !tbaa !96
  %25 = getelementptr inbounds nuw %"struct.duckdb_zstd::ZSTD_CCtx_params_s", ptr %24, i32 0, i32 2
  %26 = getelementptr inbounds nuw %"struct.duckdb_zstd::ZSTD_frameParameters", ptr %25, i32 0, i32 0
  store i32 1, ptr %26, align 8, !tbaa !99
  store i64 0, ptr %3, align 8
  br label %27

27:                                               ; preds = %19, %17
  %28 = load i64, ptr %3, align 8
  ret i64 %28
}

; Function Attrs: mustprogress uwtable
define noundef i64 @_ZN11duckdb_zstd21ZSTD_CCtxParams_resetEPNS_18ZSTD_CCtx_params_sE(ptr noundef %0) #2 {
  %2 = alloca ptr, align 8
  store ptr %0, ptr %2, align 8, !tbaa !96
  %3 = load ptr, ptr %2, align 8, !tbaa !96
  %4 = call noundef i64 @_ZN11duckdb_zstd20ZSTD_CCtxParams_initEPNS_18ZSTD_CCtx_params_sEi(ptr noundef %3, i32 noundef 3)
  ret i64 %4
}

; Function Attrs: inlinehint mustprogress nounwind uwtable
define internal noundef i32 @_ZN11duckdb_zstdL15ZSTD_cpuid_bmi2ENS_12ZSTD_cpuid_tE(i64 %0, i64 %1) #6 {
  %3 = alloca %"struct.duckdb_zstd::ZSTD_cpuid_t", align 4
  %4 = getelementptr inbounds nuw { i64, i64 }, ptr %3, i32 0, i32 0
  store i64 %0, ptr %4, align 4
  %5 = getelementptr inbounds nuw { i64, i64 }, ptr %3, i32 0, i32 1
  store i64 %1, ptr %5, align 4
  %6 = getelementptr inbounds nuw %"struct.duckdb_zstd::ZSTD_cpuid_t", ptr %3, i32 0, i32 2
  %7 = load i32, ptr %6, align 4, !tbaa !81
  %8 = and i32 %7, 256
  %9 = icmp ne i32 %8, 0
  %10 = zext i1 %9 to i32
  ret i32 %10
}

; Function Attrs: inlinehint mustprogress nounwind uwtable
define internal noundef i32 @_ZN11duckdb_zstdL15ZSTD_cpuid_bmi1ENS_12ZSTD_cpuid_tE(i64 %0, i64 %1) #6 {
  %3 = alloca %"struct.duckdb_zstd::ZSTD_cpuid_t", align 4
  %4 = getelementptr inbounds nuw { i64, i64 }, ptr %3, i32 0, i32 0
  store i64 %0, ptr %4, align 4
  %5 = getelementptr inbounds nuw { i64, i64 }, ptr %3, i32 0, i32 1
  store i64 %1, ptr %5, align 4
  %6 = getelementptr inbounds nuw %"struct.duckdb_zstd::ZSTD_cpuid_t", ptr %3, i32 0, i32 2
  %7 = load i32, ptr %6, align 4, !tbaa !81
  %8 = and i32 %7, 8
  %9 = icmp ne i32 %8, 0
  %10 = zext i1 %9 to i32
  ret i32 %10
}

; Function Attrs: inlinehint mustprogress nounwind uwtable
define internal { i64, i64 } @_ZN11duckdb_zstdL10ZSTD_cpuidEv() #6 {
  %1 = alloca %"struct.duckdb_zstd::ZSTD_cpuid_t", align 4
  %2 = alloca i32, align 4
  %3 = alloca i32, align 4
  %4 = alloca i32, align 4
  %5 = alloca i32, align 4
  %6 = alloca i32, align 4
  %7 = alloca i32, align 4
  %8 = alloca i32, align 4
  call void @llvm.lifetime.start.p0(i64 4, ptr %2) #16
  store i32 0, ptr %2, align 4, !tbaa !79
  call void @llvm.lifetime.start.p0(i64 4, ptr %3) #16
  store i32 0, ptr %3, align 4, !tbaa !79
  call void @llvm.lifetime.start.p0(i64 4, ptr %4) #16
  store i32 0, ptr %4, align 4, !tbaa !79
  call void @llvm.lifetime.start.p0(i64 4, ptr %5) #16
  store i32 0, ptr %5, align 4, !tbaa !79
  call void @llvm.lifetime.start.p0(i64 4, ptr %6) #16
  %9 = call i32 asm "cpuid", "={ax},{ax},~{ebx},~{ecx},~{edx},~{dirflag},~{fpsr},~{flags}"(i32 0) #18, !srcloc !83
  store i32 %9, ptr %6, align 4, !tbaa !79
  %10 = load i32, ptr %6, align 4, !tbaa !79
  %11 = icmp uge i32 %10, 1
  br i1 %11, label %12, label %17

12:                                               ; preds = %0
  call void @llvm.lifetime.start.p0(i64 4, ptr %7) #16
  %13 = call { i32, i32, i32 } asm "cpuid", "={ax},={cx},={dx},{ax},~{ebx},~{dirflag},~{fpsr},~{flags}"(i32 1) #18, !srcloc !84
  %14 = extractvalue { i32, i32, i32 } %13, 0
  %15 = extractvalue { i32, i32, i32 } %13, 1
  %16 = extractvalue { i32, i32, i32 } %13, 2
  store i32 %14, ptr %7, align 4, !tbaa !79
  store i32 %15, ptr %2, align 4, !tbaa !79
  store i32 %16, ptr %3, align 4, !tbaa !79
  call void @llvm.lifetime.end.p0(i64 4, ptr %7) #16
  br label %17

17:                                               ; preds = %12, %0
  %18 = load i32, ptr %6, align 4, !tbaa !79
  %19 = icmp uge i32 %18, 7
  br i1 %19, label %20, label %25

20:                                               ; preds = %17
  call void @llvm.lifetime.start.p0(i64 4, ptr %8) #16
  %21 = call { i32, i32, i32 } asm "cpuid", "={ax},={bx},={cx},{ax},{cx},~{edx},~{dirflag},~{fpsr},~{flags}"(i32 7, i32 0) #18, !srcloc !85
  %22 = extractvalue { i32, i32, i32 } %21, 0
  %23 = extractvalue { i32, i32, i32 } %21, 1
  %24 = extractvalue { i32, i32, i32 } %21, 2
  store i32 %22, ptr %8, align 4, !tbaa !79
  store i32 %23, ptr %4, align 4, !tbaa !79
  store i32 %24, ptr %5, align 4, !tbaa !79
  call void @llvm.lifetime.end.p0(i64 4, ptr %8) #16
  br label %25

25:                                               ; preds = %20, %17
  %26 = load i32, ptr %2, align 4, !tbaa !79
  %27 = getelementptr inbounds nuw %"struct.duckdb_zstd::ZSTD_cpuid_t", ptr %1, i32 0, i32 0
  store i32 %26, ptr %27, align 4, !tbaa !86
  %28 = load i32, ptr %3, align 4, !tbaa !79
  %29 = getelementptr inbounds nuw %"struct.duckdb_zstd::ZSTD_cpuid_t", ptr %1, i32 0, i32 1
  store i32 %28, ptr %29, align 4, !tbaa !87
  %30 = load i32, ptr %4, align 4, !tbaa !79
  %31 = getelementptr inbounds nuw %"struct.duckdb_zstd::ZSTD_cpuid_t", ptr %1, i32 0, i32 2
  store i32 %30, ptr %31, align 4, !tbaa !81
  %32 = load i32, ptr %5, align 4, !tbaa !79
  %33 = getelementptr inbounds nuw %"struct.duckdb_zstd::ZSTD_cpuid_t", ptr %1, i32 0, i32 3
  store i32 %32, ptr %33, align 4, !tbaa !88
  call void @llvm.lifetime.end.p0(i64 4, ptr %6) #16
  call void @llvm.lifetime.end.p0(i64 4, ptr %5) #16
  call void @llvm.lifetime.end.p0(i64 4, ptr %4) #16
  call void @llvm.lifetime.end.p0(i64 4, ptr %3) #16
  call void @llvm.lifetime.end.p0(i64 4, ptr %2) #16
  %34 = load { i64, i64 }, ptr %1, align 4
  ret { i64, i64 } %34
}

; Function Attrs: mustprogress uwtable
define noundef i64 @_ZN11duckdb_zstd15ZSTD_CCtx_resetEPNS_11ZSTD_CCtx_sENS_19ZSTD_ResetDirectiveE(ptr noundef %0, i32 noundef %1) #2 {
  %3 = alloca i64, align 8
  %4 = alloca ptr, align 8
  %5 = alloca i32, align 4
  store ptr %0, ptr %4, align 8, !tbaa !13
  store i32 %1, ptr %5, align 4, !tbaa !176
  %6 = load i32, ptr %5, align 4, !tbaa !176
  %7 = icmp eq i32 %6, 1
  br i1 %7, label %11, label %8

8:                                                ; preds = %2
  %9 = load i32, ptr %5, align 4, !tbaa !176
  %10 = icmp eq i32 %9, 3
  br i1 %10, label %11, label %16

11:                                               ; preds = %8, %2
  %12 = load ptr, ptr %4, align 8, !tbaa !13
  %13 = getelementptr inbounds nuw %"struct.duckdb_zstd::ZSTD_CCtx_s", ptr %12, i32 0, i32 37
  store i32 0, ptr %13, align 8, !tbaa !122
  %14 = load ptr, ptr %4, align 8, !tbaa !13
  %15 = getelementptr inbounds nuw %"struct.duckdb_zstd::ZSTD_CCtx_s", ptr %14, i32 0, i32 10
  store i64 0, ptr %15, align 8, !tbaa !163
  br label %16

16:                                               ; preds = %11, %8
  %17 = load i32, ptr %5, align 4, !tbaa !176
  %18 = icmp eq i32 %17, 2
  br i1 %18, label %22, label %19

19:                                               ; preds = %16
  %20 = load i32, ptr %5, align 4, !tbaa !176
  %21 = icmp eq i32 %20, 3
  br i1 %21, label %22, label %43

22:                                               ; preds = %19, %16
  br label %23

23:                                               ; preds = %22
  %24 = load ptr, ptr %4, align 8, !tbaa !13
  %25 = getelementptr inbounds nuw %"struct.duckdb_zstd::ZSTD_CCtx_s", ptr %24, i32 0, i32 37
  %26 = load i32, ptr %25, align 8, !tbaa !122
  %27 = icmp ne i32 %26, 0
  br i1 %27, label %28, label %37

28:                                               ; preds = %23
  br label %29

29:                                               ; preds = %28
  br label %30

30:                                               ; preds = %29
  br label %31

31:                                               ; preds = %30
  br label %32

32:                                               ; preds = %31
  br label %33

33:                                               ; preds = %32
  br label %34

34:                                               ; preds = %33
  br label %35

35:                                               ; preds = %34
  br label %36

36:                                               ; preds = %35
  store i64 -60, ptr %3, align 8
  br label %44

37:                                               ; preds = %23
  br label %38

38:                                               ; preds = %37
  %39 = load ptr, ptr %4, align 8, !tbaa !13
  call void @_ZN11duckdb_zstdL18ZSTD_clearAllDictsEPNS_11ZSTD_CCtx_sE(ptr noundef %39)
  %40 = load ptr, ptr %4, align 8, !tbaa !13
  %41 = getelementptr inbounds nuw %"struct.duckdb_zstd::ZSTD_CCtx_s", ptr %40, i32 0, i32 3
  %42 = call noundef i64 @_ZN11duckdb_zstd21ZSTD_CCtxParams_resetEPNS_18ZSTD_CCtx_params_sE(ptr noundef %41)
  store i64 %42, ptr %3, align 8
  br label %44

43:                                               ; preds = %19
  store i64 0, ptr %3, align 8
  br label %44

44:                                               ; preds = %43, %38, %36
  %45 = load i64, ptr %3, align 8
  ret i64 %45
}

; Function Attrs: inlinehint mustprogress uwtable
define internal noundef i32 @_ZN11duckdb_zstdL20ZSTD_cpuSupportsBmi2Ev() #4 {
  %1 = alloca %"struct.duckdb_zstd::ZSTD_cpuid_t", align 4
  %2 = alloca %"struct.duckdb_zstd::ZSTD_cpuid_t", align 4
  %3 = alloca %"struct.duckdb_zstd::ZSTD_cpuid_t", align 4
  call void @llvm.lifetime.start.p0(i64 16, ptr %1) #16
  %4 = call { i64, i64 } @_ZN11duckdb_zstdL10ZSTD_cpuidEv()
  %5 = getelementptr inbounds nuw { i64, i64 }, ptr %1, i32 0, i32 0
  %6 = extractvalue { i64, i64 } %4, 0
  store i64 %6, ptr %5, align 4
  %7 = getelementptr inbounds nuw { i64, i64 }, ptr %1, i32 0, i32 1
  %8 = extractvalue { i64, i64 } %4, 1
  store i64 %8, ptr %7, align 4
  call void @llvm.memcpy.p0.p0.i64(ptr align 4 %2, ptr align 4 %1, i64 16, i1 false), !tbaa.struct !261
  %9 = getelementptr inbounds nuw { i64, i64 }, ptr %2, i32 0, i32 0
  %10 = load i64, ptr %9, align 4
  %11 = getelementptr inbounds nuw { i64, i64 }, ptr %2, i32 0, i32 1
  %12 = load i64, ptr %11, align 4
  %13 = call noundef i32 @_ZN11duckdb_zstdL15ZSTD_cpuid_bmi1ENS_12ZSTD_cpuid_tE(i64 %10, i64 %12)
  %14 = icmp ne i32 %13, 0
  br i1 %14, label %15, label %22

15:                                               ; preds = %0
  call void @llvm.memcpy.p0.p0.i64(ptr align 4 %3, ptr align 4 %1, i64 16, i1 false), !tbaa.struct !261
  %16 = getelementptr inbounds nuw { i64, i64 }, ptr %3, i32 0, i32 0
  %17 = load i64, ptr %16, align 4
  %18 = getelementptr inbounds nuw { i64, i64 }, ptr %3, i32 0, i32 1
  %19 = load i64, ptr %18, align 4
  %20 = call noundef i32 @_ZN11duckdb_zstdL15ZSTD_cpuid_bmi2ENS_12ZSTD_cpuid_tE(i64 %17, i64 %19)
  %21 = icmp ne i32 %20, 0
  br label %22

22:                                               ; preds = %15, %0
  %23 = phi i1 [ false, %0 ], [ %21, %15 ]
  %24 = zext i1 %23 to i32
  call void @llvm.lifetime.end.p0(i64 16, ptr %1) #16
  ret i32 %24
}

; Function Attrs: mustprogress uwtable
define internal void @_ZN11duckdb_zstdL13ZSTD_initCCtxEPNS_11ZSTD_CCtx_sENS_14ZSTD_customMemE(ptr noundef %0, ptr noundef byval(%"struct.duckdb_zstd::ZSTD_customMem") align 8 %1) #2 {
  %3 = alloca ptr, align 8
  %4 = alloca i64, align 8
  store ptr %0, ptr %3, align 8, !tbaa !13
  %5 = load ptr, ptr %3, align 8, !tbaa !13
  call void @llvm.memset.p0.i64(ptr align 8 %5, i8 0, i64 5248, i1 false)
  %6 = load ptr, ptr %3, align 8, !tbaa !13
  %7 = getelementptr inbounds nuw %"struct.duckdb_zstd::ZSTD_CCtx_s", ptr %6, i32 0, i32 14
  call void @llvm.memcpy.p0.p0.i64(ptr align 8 %7, ptr align 8 %1, i64 24, i1 false), !tbaa.struct !7
  %8 = call noundef i32 @_ZN11duckdb_zstdL20ZSTD_cpuSupportsBmi2Ev()
  %9 = load ptr, ptr %3, align 8, !tbaa !13
  %10 = getelementptr inbounds nuw %"struct.duckdb_zstd::ZSTD_CCtx_s", ptr %9, i32 0, i32 2
  store i32 %8, ptr %10, align 8, !tbaa !16
  call void @llvm.lifetime.start.p0(i64 8, ptr %4) #16
  %11 = load ptr, ptr %3, align 8, !tbaa !13
  %12 = call noundef i64 @_ZN11duckdb_zstd15ZSTD_CCtx_resetEPNS_11ZSTD_CCtx_sENS_19ZSTD_ResetDirectiveE(ptr noundef %11, i32 noundef 2)
  store i64 %12, ptr %4, align 8, !tbaa !3
  call void @llvm.lifetime.end.p0(i64 8, ptr %4) #16
  ret void
}

; Function Attrs: inlinehint mustprogress uwtable
define internal noundef ptr @_ZN11duckdb_zstdL17ZSTD_customMallocEmNS_14ZSTD_customMemE(i64 noundef %0, ptr noundef byval(%"struct.duckdb_zstd::ZSTD_customMem") align 8 %1) #4 {
  %3 = alloca ptr, align 8
  %4 = alloca i64, align 8
  store i64 %0, ptr %4, align 8, !tbaa !3
  %5 = getelementptr inbounds nuw %"struct.duckdb_zstd::ZSTD_customMem", ptr %1, i32 0, i32 0
  %6 = load ptr, ptr %5, align 8, !tbaa !10
  %7 = icmp ne ptr %6, null
  br i1 %7, label %8, label %15

8:                                                ; preds = %2
  %9 = getelementptr inbounds nuw %"struct.duckdb_zstd::ZSTD_customMem", ptr %1, i32 0, i32 0
  %10 = load ptr, ptr %9, align 8, !tbaa !10
  %11 = getelementptr inbounds nuw %"struct.duckdb_zstd::ZSTD_customMem", ptr %1, i32 0, i32 2
  %12 = load ptr, ptr %11, align 8, !tbaa !15
  %13 = load i64, ptr %4, align 8, !tbaa !3
  %14 = call noundef ptr %10(ptr noundef %12, i64 noundef %13)
  store ptr %14, ptr %3, align 8
  br label %18

15:                                               ; preds = %2
  %16 = load i64, ptr %4, align 8, !tbaa !3
  %17 = call noalias ptr @malloc(i64 noundef %16) #17
  store ptr %17, ptr %3, align 8
  br label %18

18:                                               ; preds = %15, %8
  %19 = load ptr, ptr %3, align 8
  ret ptr %19
}

; Function Attrs: mustprogress uwtable
define noundef ptr @_ZN11duckdb_zstd24ZSTD_createCCtx_advancedENS_14ZSTD_customMemE(ptr noundef byval(%"struct.duckdb_zstd::ZSTD_customMem") align 8 %0) #2 {
  %2 = alloca ptr, align 8
  %3 = alloca ptr, align 8
  %4 = alloca %"struct.duckdb_zstd::ZSTD_customMem", align 8
  %5 = alloca i32, align 4
  %6 = alloca %"struct.duckdb_zstd::ZSTD_customMem", align 8
  %7 = getelementptr inbounds nuw %"struct.duckdb_zstd::ZSTD_customMem", ptr %0, i32 0, i32 0
  %8 = load ptr, ptr %7, align 8, !tbaa !10
  %9 = icmp ne ptr %8, null
  %10 = xor i1 %9, true
  %11 = zext i1 %10 to i32
  %12 = getelementptr inbounds nuw %"struct.duckdb_zstd::ZSTD_customMem", ptr %0, i32 0, i32 1
  %13 = load ptr, ptr %12, align 8, !tbaa !12
  %14 = icmp ne ptr %13, null
  %15 = xor i1 %14, true
  %16 = zext i1 %15 to i32
  %17 = xor i32 %11, %16
  %18 = icmp ne i32 %17, 0
  br i1 %18, label %19, label %20

19:                                               ; preds = %1
  store ptr null, ptr %2, align 8
  br label %29

20:                                               ; preds = %1
  call void @llvm.lifetime.start.p0(i64 8, ptr %3) #16
  call void @llvm.memcpy.p0.p0.i64(ptr align 8 %4, ptr align 8 %0, i64 24, i1 false), !tbaa.struct !7
  %21 = call noundef ptr @_ZN11duckdb_zstdL17ZSTD_customMallocEmNS_14ZSTD_customMemE(i64 noundef 5248, ptr noundef byval(%"struct.duckdb_zstd::ZSTD_customMem") align 8 %4)
  store ptr %21, ptr %3, align 8, !tbaa !13
  %22 = load ptr, ptr %3, align 8, !tbaa !13
  %23 = icmp ne ptr %22, null
  br i1 %23, label %25, label %24

24:                                               ; preds = %20
  store ptr null, ptr %2, align 8
  store i32 1, ptr %5, align 4
  br label %28

25:                                               ; preds = %20
  %26 = load ptr, ptr %3, align 8, !tbaa !13
  call void @llvm.memcpy.p0.p0.i64(ptr align 8 %6, ptr align 8 %0, i64 24, i1 false), !tbaa.struct !7
  call void @_ZN11duckdb_zstdL13ZSTD_initCCtxEPNS_11ZSTD_CCtx_sENS_14ZSTD_customMemE(ptr noundef %26, ptr noundef byval(%"struct.duckdb_zstd::ZSTD_customMem") align 8 %6)
  %27 = load ptr, ptr %3, align 8, !tbaa !13
  store ptr %27, ptr %2, align 8
  store i32 1, ptr %5, align 4
  br label %28

28:                                               ; preds = %25, %24
  call void @llvm.lifetime.end.p0(i64 8, ptr %3) #16
  br label %29

29:                                               ; preds = %28, %19
  %30 = load ptr, ptr %2, align 8
  ret ptr %30
}

; Function Attrs: mustprogress uwtable
define noundef ptr @_ZN11duckdb_zstd27ZSTD_createCStream_advancedENS_14ZSTD_customMemE(ptr noundef byval(%"struct.duckdb_zstd::ZSTD_customMem") align 8 %0) #2 {
  %2 = alloca %"struct.duckdb_zstd::ZSTD_customMem", align 8
  call void @llvm.memcpy.p0.p0.i64(ptr align 8 %2, ptr align 8 %0, i64 24, i1 false), !tbaa.struct !7
  %3 = call noundef ptr @_ZN11duckdb_zstd24ZSTD_createCCtx_advancedENS_14ZSTD_customMemE(ptr noundef byval(%"struct.duckdb_zstd::ZSTD_customMem") align 8 %2)
  ret ptr %3
}