; Function Attrs: mustprogress uwtable
define noundef ptr @_ZN11duckdb_zstd27ZSTD_createCStream_advancedENS_14ZSTD_customMemE(ptr noundef readonly byval(%"struct.duckdb_zstd::ZSTD_customMem") align 8 captures(none) %0) local_unnamed_addr #2 {
  %.sroa.06.0.copyload = load ptr, ptr %0, align 8, !tbaa !61
  %.sroa.2.0..sroa_idx = getelementptr inbounds nuw i8, ptr %0, i64 8
  %.sroa.2.0.copyload = load ptr, ptr %.sroa.2.0..sroa_idx, align 8, !tbaa !61
  %.sroa.3.0..sroa_idx = getelementptr inbounds nuw i8, ptr %0, i64 16
  %.sroa.3.0.copyload = load ptr, ptr %.sroa.3.0..sroa_idx, align 8, !tbaa !61
  %.not.i = icmp eq ptr %.sroa.06.0.copyload, null
  %.not5.i = icmp eq ptr %.sroa.2.0.copyload, null
  %2 = xor i1 %.not.i, %.not5.i
  br i1 %2, label %_ZN11duckdb_zstd24ZSTD_createCCtx_advancedENS_14ZSTD_customMemE.exit, label %3

3:                                                ; preds = %1
  br i1 %.not.i, label %6, label %4

4:                                                ; preds = %3
  %5 = tail call noundef ptr %.sroa.06.0.copyload(ptr noundef %.sroa.3.0.copyload, i64 noundef 5248)
  br label %_ZN11duckdb_zstdL17ZSTD_customMallocEmNS_14ZSTD_customMemE.exit.i

6:                                                ; preds = %3
  %7 = tail call noalias dereferenceable_or_null(5248) ptr @malloc(i64 noundef 5248) #27
  br label %_ZN11duckdb_zstdL17ZSTD_customMallocEmNS_14ZSTD_customMemE.exit.i

_ZN11duckdb_zstdL17ZSTD_customMallocEmNS_14ZSTD_customMemE.exit.i: ; preds = %6, %4
  %.0.i.i = phi ptr [ %5, %4 ], [ %7, %6 ]
  %.not6.i = icmp eq ptr %.0.i.i, null
  br i1 %.not6.i, label %_ZN11duckdb_zstd24ZSTD_createCCtx_advancedENS_14ZSTD_customMemE.exit, label %8

8:                                                ; preds = %_ZN11duckdb_zstdL17ZSTD_customMallocEmNS_14ZSTD_customMemE.exit.i
  tail call void @llvm.memset.p0.i64(ptr noundef nonnull align 8 dereferenceable(5248) %.0.i.i, i8 0, i64 5248, i1 false)
  %9 = getelementptr inbounds nuw i8, ptr %.0.i.i, i64 872
  store ptr %.sroa.06.0.copyload, ptr %9, align 8
  %.sroa.5.0..sroa_idx = getelementptr inbounds nuw i8, ptr %.0.i.i, i64 880
  store ptr %.sroa.2.0.copyload, ptr %.sroa.5.0..sroa_idx, align 8
  %.sroa.6.0..sroa_idx = getelementptr inbounds nuw i8, ptr %.0.i.i, i64 888
  store ptr %.sroa.3.0.copyload, ptr %.sroa.6.0..sroa_idx, align 8
  %10 = tail call i32 asm "cpuid", "={ax},{ax},~{ebx},~{ecx},~{edx},~{dirflag},~{fpsr},~{flags}"(i32 0) #26, !srcloc !3
  %.not.i.i.i.i = icmp eq i32 %10, 0
  br i1 %.not.i.i.i.i, label %_ZN11duckdb_zstdL13ZSTD_initCCtxEPNS_11ZSTD_CCtx_sENS_14ZSTD_customMemE.exit.i, label %11

11:                                               ; preds = %8
  %12 = tail call { i32, i32, i32 } asm "cpuid", "={ax},={cx},={dx},{ax},~{ebx},~{dirflag},~{fpsr},~{flags}"(i32 1) #26, !srcloc !4
  %13 = icmp ugt i32 %10, 6
  br i1 %13, label %_ZN11duckdb_zstdL10ZSTD_cpuidEv.exit.i.i.i, label %_ZN11duckdb_zstdL13ZSTD_initCCtxEPNS_11ZSTD_CCtx_sENS_14ZSTD_customMemE.exit.i

_ZN11duckdb_zstdL10ZSTD_cpuidEv.exit.i.i.i:       ; preds = %11
  %14 = tail call { i32, i32, i32 } asm "cpuid", "={ax},={bx},={cx},{ax},{cx},~{edx},~{dirflag},~{fpsr},~{flags}"(i32 7, i32 0) #26, !srcloc !5
  %15 = extractvalue { i32, i32, i32 } %14, 1
  %16 = and i32 %15, 8
  %.not.i.i.i = icmp eq i32 %16, 0
  br i1 %.not.i.i.i, label %_ZN11duckdb_zstdL13ZSTD_initCCtxEPNS_11ZSTD_CCtx_sENS_14ZSTD_customMemE.exit.i, label %17

17:                                               ; preds = %_ZN11duckdb_zstdL10ZSTD_cpuidEv.exit.i.i.i
  %18 = lshr i32 %15, 8
  %19 = and i32 %18, 1
  br label %_ZN11duckdb_zstdL13ZSTD_initCCtxEPNS_11ZSTD_CCtx_sENS_14ZSTD_customMemE.exit.i

_ZN11duckdb_zstdL13ZSTD_initCCtxEPNS_11ZSTD_CCtx_sENS_14ZSTD_customMemE.exit.i: ; preds = %17, %_ZN11duckdb_zstdL10ZSTD_cpuidEv.exit.i.i.i, %11, %8
  %20 = phi i32 [ 0, %_ZN11duckdb_zstdL10ZSTD_cpuidEv.exit.i.i.i ], [ %19, %17 ], [ 0, %11 ], [ 0, %8 ]
  %21 = getelementptr inbounds nuw i8, ptr %.0.i.i, i64 8
  store i32 %20, ptr %21, align 8, !tbaa !6
  tail call fastcc void @_ZN11duckdb_zstdL18ZSTD_clearAllDictsEPNS_11ZSTD_CCtx_sE(ptr noundef nonnull %.0.i.i)
  %22 = getelementptr inbounds nuw i8, ptr %.0.i.i, i64 16
  tail call void @llvm.memset.p0.i64(ptr noundef nonnull align 8 dereferenceable(216) %22, i8 0, i64 216, i1 false)
  %23 = getelementptr inbounds nuw i8, ptr %.0.i.i, i64 60
  store i32 3, ptr %23, align 4, !tbaa !57
  %24 = getelementptr inbounds nuw i8, ptr %.0.i.i, i64 48
  store i32 1, ptr %24, align 8, !tbaa !58
  br label %_ZN11duckdb_zstd24ZSTD_createCCtx_advancedENS_14ZSTD_customMemE.exit

_ZN11duckdb_zstd24ZSTD_createCCtx_advancedENS_14ZSTD_customMemE.exit: ; preds = %1, %_ZN11duckdb_zstdL17ZSTD_customMallocEmNS_14ZSTD_customMemE.exit.i, %_ZN11duckdb_zstdL13ZSTD_initCCtxEPNS_11ZSTD_CCtx_sENS_14ZSTD_customMemE.exit.i
  %.0.i = phi ptr [ null, %1 ], [ %.0.i.i, %_ZN11duckdb_zstdL13ZSTD_initCCtxEPNS_11ZSTD_CCtx_sENS_14ZSTD_customMemE.exit.i ], [ null, %_ZN11duckdb_zstdL17ZSTD_customMallocEmNS_14ZSTD_customMemE.exit.i ]
  ret ptr %.0.i
}